; Function Attrs: nounwind uwtable
define ptr @l_Lake_buildFileAfterDepArray___rarg___boxed(ptr noundef %0, ptr noundef %1, ptr noundef %2, ptr noundef %3, ptr noundef %4, ptr noundef %5, ptr noundef %6, ptr noundef %7, ptr noundef %8, ptr noundef %9, ptr noundef %10) #0 {
  %12 = ptrtoint ptr %4 to i64
  %13 = and i64 %12, 1
  %.not = icmp eq i64 %13, 0
  br i1 %.not, label %14, label %lean_dec.exit14

14:                                               ; preds = %11
  %15 = load i32, ptr %4, align 4, !tbaa !4
  %16 = icmp sgt i32 %15, 1
  br i1 %16, label %17, label %19, !prof !12

17:                                               ; preds = %14
  %18 = add nsw i32 %15, -1
  store i32 %18, ptr %4, align 4, !tbaa !4
  br label %lean_dec.exit14

19:                                               ; preds = %14
  %.not.i = icmp eq i32 %15, 0
  br i1 %.not.i, label %lean_dec.exit14, label %20

20:                                               ; preds = %19
  tail call void @lean_dec_ref_cold(ptr noundef nonnull %4) #5
  br label %lean_dec.exit14

lean_dec.exit14:                                  ; preds = %20, %19, %17, %11
  %21 = load ptr, ptr @l_Lake_buildFileAfterDepList___rarg___closed__1, align 8, !tbaa !9
  %22 = tail call ptr @l_Lake_Job_collectArray___rarg(ptr noundef %1, ptr noundef %21) #5
  tail call void @lean_inc_heartbeat() #5
  %23 = tail call noalias ptr @mi_malloc_small(i64 noundef 56) #5
  %24 = icmp eq ptr %23, null
  br i1 %24, label %25, label %l_Lake_buildFileAfterDepArray___rarg.exit

25:                                               ; preds = %lean_dec.exit14
  tail call void @lean_internal_panic_out_of_memory() #6
  unreachable

l_Lake_buildFileAfterDepArray___rarg.exit:        ; preds = %lean_dec.exit14
  %26 = and i64 %12, 510
  %27 = or disjoint i64 %26, 1
  %28 = inttoptr i64 %27 to ptr
  %29 = getelementptr inbounds nuw i8, ptr %23, i64 4
  store i32 1, ptr %23, align 4, !tbaa !4
  store i32 -184549320, ptr %29, align 4
  %30 = getelementptr inbounds nuw i8, ptr %23, i64 8
  store ptr @l_Lake_buildFileAfterDep___rarg___lambda__1___boxed, ptr %30, align 8, !tbaa !9
  %31 = getelementptr inbounds nuw i8, ptr %23, i64 16
  store i16 11, ptr %31, align 8, !tbaa !15
  %32 = getelementptr inbounds nuw i8, ptr %23, i64 18
  store i16 4, ptr %32, align 2, !tbaa !15
  %33 = getelementptr inbounds nuw i8, ptr %23, i64 24
  store ptr %3, ptr %33, align 8, !tbaa !9
  %34 = getelementptr inbounds nuw i8, ptr %23, i64 32
  store ptr %2, ptr %34, align 8, !tbaa !9
  %35 = getelementptr inbounds nuw i8, ptr %23, i64 40
  store ptr %0, ptr %35, align 8, !tbaa !9
  %36 = getelementptr inbounds nuw i8, ptr %23, i64 48
  store ptr %28, ptr %36, align 8, !tbaa !9
  %37 = load ptr, ptr @l_Task_Priority_default, align 8, !tbaa !9
  %38 = tail call ptr @l_Lake_Job_mapM___at_Lake_buildFileAfterDepArray___spec__1___rarg(ptr noundef %22, ptr noundef nonnull %23, ptr noundef %37, i8 noundef zeroext 0, ptr noundef %5, ptr noundef %6, ptr noundef %7, ptr noundef %8, ptr noundef %9, ptr noundef %10)
  %39 = ptrtoint ptr %1 to i64
  %40 = and i64 %39, 1
  %.not17 = icmp eq i64 %40, 0
  br i1 %.not17, label %41, label %lean_dec.exit

41:                                               ; preds = %l_Lake_buildFileAfterDepArray___rarg.exit
  %42 = load i32, ptr %1, align 4, !tbaa !4
  %43 = icmp sgt i32 %42, 1
  br i1 %43, label %44, label %46, !prof !12

44:                                               ; preds = %41
  %45 = add nsw i32 %42, -1
  store i32 %45, ptr %1, align 4, !tbaa !4
  br label %lean_dec.exit

46:                                               ; preds = %41
  %.not.i15 = icmp eq i32 %42, 0
  br i1 %.not.i15, label %lean_dec.exit, label %47

47:                                               ; preds = %46
  tail call void @lean_dec_ref_cold(ptr noundef nonnull %1) #5
  br label %lean_dec.exit

lean_dec.exit:                                    ; preds = %47, %46, %44, %l_Lake_buildFileAfterDepArray___rarg.exit
  ret ptr %38
}